target datalayout = "e-m:e-p270:32:32-p271:32:32-p272:64:64-i64:64-i128:128-f80:128-n8:16:32:64-S128"
target triple = "x86_64-pc-linux-gnu"

%struct.prio_queue = type { ptr, i64, ptr, i64, i64, ptr }
%struct.prio_queue_entry = type { i64, ptr }

; Function Attrs: nounwind uwtable
define dso_local ptr @prio_queue_peek(ptr noundef %0) #0 {
  %2 = alloca ptr, align 8
  %3 = alloca ptr, align 8
  store ptr %0, ptr %3, align 8, !tbaa !4
  %4 = load ptr, ptr %3, align 8, !tbaa !4
  %5 = getelementptr inbounds nuw %struct.prio_queue, ptr %4, i32 0, i32 4
  %6 = load i64, ptr %5, align 8, !tbaa !13
  %7 = icmp ne i64 %6, 0
  br i1 %7, label %9, label %8

8:                                                ; preds = %1
  store ptr null, ptr %2, align 8
  br label %32

9:                                                ; preds = %1
  %10 = load ptr, ptr %3, align 8, !tbaa !4
  %11 = getelementptr inbounds nuw %struct.prio_queue, ptr %10, i32 0, i32 0
  %12 = load ptr, ptr %11, align 8, !tbaa !9
  %13 = icmp ne ptr %12, null
  br i1 %13, label %25, label %14

14:                                               ; preds = %9
  %15 = load ptr, ptr %3, align 8, !tbaa !4
  %16 = getelementptr inbounds nuw %struct.prio_queue, ptr %15, i32 0, i32 5
  %17 = load ptr, ptr %16, align 8, !tbaa !17
  %18 = load ptr, ptr %3, align 8, !tbaa !4
  %19 = getelementptr inbounds nuw %struct.prio_queue, ptr %18, i32 0, i32 4
  %20 = load i64, ptr %19, align 8, !tbaa !13
  %21 = sub i64 %20, 1
  %22 = getelementptr inbounds nuw %struct.prio_queue_entry, ptr %17, i64 %21
  %23 = getelementptr inbounds nuw %struct.prio_queue_entry, ptr %22, i32 0, i32 1
  %24 = load ptr, ptr %23, align 8, !tbaa !23
  store ptr %24, ptr %2, align 8
  br label %32

25:                                               ; preds = %9
  %26 = load ptr, ptr %3, align 8, !tbaa !4
  %27 = getelementptr inbounds nuw %struct.prio_queue, ptr %26, i32 0, i32 5
  %28 = load ptr, ptr %27, align 8, !tbaa !17
  %29 = getelementptr inbounds %struct.prio_queue_entry, ptr %28, i64 0
  %30 = getelementptr inbounds nuw %struct.prio_queue_entry, ptr %29, i32 0, i32 1
  %31 = load ptr, ptr %30, align 8, !tbaa !23
  store ptr %31, ptr %2, align 8
  br label %32

32:                                               ; preds = %25, %14, %8
  %33 = load ptr, ptr %2, align 8
  ret ptr %33
}