; Function Attrs: mustprogress nofree norecurse nosync nounwind willreturn memory(read, inaccessiblemem: none) uwtable
define dso_local ptr @prio_queue_peek(ptr noundef readonly captures(none) %0) local_unnamed_addr #7 {
  %2 = getelementptr inbounds nuw i8, ptr %0, i64 32
  %3 = load i64, ptr %2, align 8, !tbaa !11
  %.not = icmp eq i64 %3, 0
  br i1 %.not, label %15, label %4

4:                                                ; preds = %1
  %5 = load ptr, ptr %0, align 8, !tbaa !4
  %.not7 = icmp eq ptr %5, null
  %6 = getelementptr inbounds nuw i8, ptr %0, i64 40
  %7 = load ptr, ptr %6, align 8, !tbaa !12
  br i1 %.not7, label %8, label %12

8:                                                ; preds = %4
  %9 = getelementptr %struct.prio_queue_entry, ptr %7, i64 %3
  %10 = getelementptr i8, ptr %9, i64 -8
  %11 = load ptr, ptr %10, align 8, !tbaa !19
  br label %15

12:                                               ; preds = %4
  %13 = getelementptr inbounds nuw i8, ptr %7, i64 8
  %14 = load ptr, ptr %13, align 8, !tbaa !19
  br label %15

15:                                               ; preds = %1, %12, %8
  %.0 = phi ptr [ %14, %12 ], [ %11, %8 ], [ null, %1 ]
  ret ptr %.0
}